target datalayout = "e-m:e-p270:32:32-p271:32:32-p272:64:64-i64:64-i128:128-f80:128-n8:16:32:64-S128"
target triple = "x86_64-pc-linux-gnu"

%struct.strbuf = type { i64, i64, ptr }
%struct.grep_opt = type { ptr, ptr, ptr, ptr, ptr, ptr, i32, i32, i32, i32, i32, i32, i32, i32, i32, i32, i32, i32, i32, i32, i32, i32, i32, i32, i32, i32, i32, i32, i32, i32, i32, i32, [9 x [75 x i8]], i32, i32, i32, i32, i32, i32, i32, ptr, ptr, ptr }
%struct.grep_pat = type { ptr, ptr, i32, i32, ptr, i64, i32, %struct.re_pattern_buffer, ptr, ptr, ptr, ptr, ptr, i32, i8 }
%struct.re_pattern_buffer = type { ptr, i64, i64, i64, ptr, ptr, i64, i8 }

@.str.39 = private unnamed_addr constant [95 x i8] c"given pattern contains NULL byte (via -f <file>). This is only supported with -P under PCRE v2\00", align 1
@sane_ctype = external constant [256 x i8], align 16
@__const.compile_fixed_regexp.sb = private unnamed_addr constant %struct.strbuf { i64 0, i64 0, ptr @strbuf_slopbuf }, align 8
@.str.41 = private unnamed_addr constant [70 x i8] c"cannot use Perl-compatible regexes when not compiled with USE_LIBPCRE\00", align 1

; Function Attrs: nounwind uwtable
define internal void @compile_pcre2_pattern(ptr noundef %0, ptr noundef %1) #0 {
  %3 = alloca ptr, align 8
  %4 = alloca ptr, align 8
  store ptr %0, ptr %3, align 8, !tbaa !44
  store ptr %1, ptr %4, align 8, !tbaa !19
  call void (ptr, ...) @die(ptr noundef @.str.41) #13
  unreachable
}

; Function Attrs: nounwind uwtable
define internal void @compile_fixed_regexp(ptr noundef %0, ptr noundef %1) #0 {
  %3 = alloca ptr, align 8
  %4 = alloca ptr, align 8
  %5 = alloca %struct.strbuf, align 8
  %6 = alloca i32, align 4
  %7 = alloca i32, align 4
  %8 = alloca [1024 x i8], align 16
  store ptr %0, ptr %3, align 8, !tbaa !44
  store ptr %1, ptr %4, align 8, !tbaa !19
  call void @llvm.lifetime.start.p0(i64 24, ptr %5) #11
  call void @llvm.memcpy.p0.p0.i64(ptr align 8 %5, ptr align 8 @__const.compile_fixed_regexp.sb, i64 24, i1 false)
  call void @llvm.lifetime.start.p0(i64 4, ptr %6) #11
  call void @llvm.lifetime.start.p0(i64 4, ptr %7) #11
  store i32 0, ptr %7, align 4, !tbaa !33
  %9 = load ptr, ptr %3, align 8, !tbaa !44
  %10 = getelementptr inbounds nuw %struct.grep_pat, ptr %9, i32 0, i32 4
  %11 = load ptr, ptr %10, align 8, !tbaa !46
  call void @basic_regex_quote_buf(ptr noundef %5, ptr noundef %11)
  %12 = load ptr, ptr %4, align 8, !tbaa !19
  %13 = getelementptr inbounds nuw %struct.grep_opt, ptr %12, i32 0, i32 9
  %14 = load i32, ptr %13, align 4, !tbaa !75
  %15 = icmp ne i32 %14, 0
  br i1 %15, label %16, label %19

16:                                               ; preds = %2
  %17 = load i32, ptr %7, align 4, !tbaa !33
  %18 = or i32 %17, 2
  store i32 %18, ptr %7, align 4, !tbaa !33
  br label %19

19:                                               ; preds = %16, %2
  %20 = load ptr, ptr %3, align 8, !tbaa !44
  %21 = getelementptr inbounds nuw %struct.grep_pat, ptr %20, i32 0, i32 7
  %22 = getelementptr inbounds nuw %struct.strbuf, ptr %5, i32 0, i32 2
  %23 = load ptr, ptr %22, align 8, !tbaa !142
  %24 = load i32, ptr %7, align 4, !tbaa !33
  %25 = call i32 @regcomp(ptr noundef %21, ptr noundef %23, i32 noundef %24)
  store i32 %25, ptr %6, align 4, !tbaa !33
  call void @strbuf_release(ptr noundef %5)
  %26 = load i32, ptr %6, align 4, !tbaa !33
  %27 = icmp ne i32 %26, 0
  br i1 %27, label %28, label %36

28:                                               ; preds = %19
  call void @llvm.lifetime.start.p0(i64 1024, ptr %8) #11
  %29 = load i32, ptr %6, align 4, !tbaa !33
  %30 = load ptr, ptr %3, align 8, !tbaa !44
  %31 = getelementptr inbounds nuw %struct.grep_pat, ptr %30, i32 0, i32 7
  %32 = getelementptr inbounds [1024 x i8], ptr %8, i64 0, i64 0
  %33 = call i64 @regerror(i32 noundef %29, ptr noundef %31, ptr noundef %32, i64 noundef 1024)
  %34 = load ptr, ptr %3, align 8, !tbaa !44
  %35 = getelementptr inbounds [1024 x i8], ptr %8, i64 0, i64 0
  call void @compile_regexp_failed(ptr noundef %34, ptr noundef %35) #13
  unreachable

36:                                               ; preds = %19
  call void @llvm.lifetime.end.p0(i64 4, ptr %7) #11
  call void @llvm.lifetime.end.p0(i64 4, ptr %6) #11
  call void @llvm.lifetime.end.p0(i64 24, ptr %5) #11
  ret void
}

; Function Attrs: nounwind uwtable
define internal i32 @is_fixed(ptr noundef %0, i64 noundef %1) #0 {
  %3 = alloca i32, align 4
  %4 = alloca ptr, align 8
  %5 = alloca i64, align 8
  %6 = alloca i64, align 8
  %7 = alloca i32, align 4
  store ptr %0, ptr %4, align 8, !tbaa !9
  store i64 %1, ptr %5, align 8, !tbaa !11
  call void @llvm.lifetime.start.p0(i64 8, ptr %6) #11
  store i64 0, ptr %6, align 8, !tbaa !11
  br label %8

8:                                                ; preds = %25, %2
  %9 = load i64, ptr %6, align 8, !tbaa !11
  %10 = load i64, ptr %5, align 8, !tbaa !11
  %11 = icmp ult i64 %9, %10
  br i1 %11, label %12, label %28

12:                                               ; preds = %8
  %13 = load ptr, ptr %4, align 8, !tbaa !9
  %14 = load i64, ptr %6, align 8, !tbaa !11
  %15 = getelementptr inbounds nuw i8, ptr %13, i64 %14
  %16 = load i8, ptr %15, align 1, !tbaa !36
  %17 = zext i8 %16 to i64
  %18 = getelementptr inbounds nuw [256 x i8], ptr @sane_ctype, i64 0, i64 %17
  %19 = load i8, ptr %18, align 1, !tbaa !36
  %20 = zext i8 %19 to i32
  %21 = and i32 %20, 24
  %22 = icmp ne i32 %21, 0
  br i1 %22, label %23, label %24

23:                                               ; preds = %12
  store i32 0, ptr %3, align 4
  store i32 1, ptr %7, align 4
  br label %29

24:                                               ; preds = %12
  br label %25

25:                                               ; preds = %24
  %26 = load i64, ptr %6, align 8, !tbaa !11
  %27 = add i64 %26, 1
  store i64 %27, ptr %6, align 8, !tbaa !11
  br label %8, !llvm.loop !141

28:                                               ; preds = %8
  store i32 1, ptr %3, align 4
  store i32 1, ptr %7, align 4
  br label %29

29:                                               ; preds = %28, %23
  call void @llvm.lifetime.end.p0(i64 8, ptr %6) #11
  %30 = load i32, ptr %3, align 4
  ret i32 %30
}

; Function Attrs: nounwind uwtable
define internal void @compile_regexp(ptr noundef %0, ptr noundef %1) #0 {
  %3 = alloca ptr, align 8
  %4 = alloca ptr, align 8
  %5 = alloca i32, align 4
  %6 = alloca i32, align 4
  %7 = alloca i32, align 4
  %8 = alloca [1024 x i8], align 16
  store ptr %0, ptr %3, align 8, !tbaa !44
  store ptr %1, ptr %4, align 8, !tbaa !19
  call void @llvm.lifetime.start.p0(i64 4, ptr %5) #11
  call void @llvm.lifetime.start.p0(i64 4, ptr %6) #11
  store i32 4, ptr %6, align 4, !tbaa !33
  %9 = load ptr, ptr %4, align 8, !tbaa !19
  %10 = getelementptr inbounds nuw %struct.grep_opt, ptr %9, i32 0, i32 30
  %11 = load i32, ptr %10, align 8, !tbaa !28
  %12 = icmp eq i32 %11, 0
  br i1 %12, label %13, label %21

13:                                               ; preds = %2
  %14 = load ptr, ptr %4, align 8, !tbaa !19
  %15 = getelementptr inbounds nuw %struct.grep_opt, ptr %14, i32 0, i32 29
  %16 = load i32, ptr %15, align 4, !tbaa !21
  %17 = icmp ne i32 %16, 0
  %18 = select i1 %17, i32 2, i32 1
  %19 = load ptr, ptr %4, align 8, !tbaa !19
  %20 = getelementptr inbounds nuw %struct.grep_opt, ptr %19, i32 0, i32 30
  store i32 %18, ptr %20, align 8, !tbaa !28
  br label %21

21:                                               ; preds = %13, %2
  %22 = load ptr, ptr %4, align 8, !tbaa !19
  %23 = getelementptr inbounds nuw %struct.grep_opt, ptr %22, i32 0, i32 14
  %24 = load i32, ptr %23, align 8, !tbaa !74
  %25 = load ptr, ptr %3, align 8, !tbaa !44
  %26 = getelementptr inbounds nuw %struct.grep_pat, ptr %25, i32 0, i32 14
  %27 = trunc i32 %24 to i8
  %28 = load i8, ptr %26, align 4
  %29 = and i8 %27, 1
  %30 = shl i8 %29, 3
  %31 = and i8 %28, -9
  %32 = or i8 %31, %30
  store i8 %32, ptr %26, align 4
  %33 = load ptr, ptr %4, align 8, !tbaa !19
  %34 = getelementptr inbounds nuw %struct.grep_opt, ptr %33, i32 0, i32 9
  %35 = load i32, ptr %34, align 4, !tbaa !75
  %36 = load ptr, ptr %3, align 8, !tbaa !44
  %37 = getelementptr inbounds nuw %struct.grep_pat, ptr %36, i32 0, i32 14
  %38 = trunc i32 %35 to i8
  %39 = load i8, ptr %37, align 4
  %40 = and i8 %38, 1
  %41 = shl i8 %40, 2
  %42 = and i8 %39, -5
  %43 = or i8 %42, %41
  store i8 %43, ptr %37, align 4
  %44 = load ptr, ptr %4, align 8, !tbaa !19
  %45 = getelementptr inbounds nuw %struct.grep_opt, ptr %44, i32 0, i32 30
  %46 = load i32, ptr %45, align 8, !tbaa !28
  %47 = icmp eq i32 %46, 3
  %48 = zext i1 %47 to i32
  %49 = load ptr, ptr %3, align 8, !tbaa !44
  %50 = getelementptr inbounds nuw %struct.grep_pat, ptr %49, i32 0, i32 14
  %51 = trunc i32 %48 to i8
  %52 = load i8, ptr %50, align 4
  %53 = and i8 %51, 1
  %54 = and i8 %52, -2
  %55 = or i8 %54, %53
  store i8 %55, ptr %50, align 4
  %56 = load ptr, ptr %4, align 8, !tbaa !19
  %57 = getelementptr inbounds nuw %struct.grep_opt, ptr %56, i32 0, i32 30
  %58 = load i32, ptr %57, align 8, !tbaa !28
  %59 = icmp ne i32 %58, 4
  br i1 %59, label %60, label %71

60:                                               ; preds = %21
  %61 = load ptr, ptr %3, align 8, !tbaa !44
  %62 = getelementptr inbounds nuw %struct.grep_pat, ptr %61, i32 0, i32 4
  %63 = load ptr, ptr %62, align 8, !tbaa !46
  %64 = load ptr, ptr %3, align 8, !tbaa !44
  %65 = getelementptr inbounds nuw %struct.grep_pat, ptr %64, i32 0, i32 5
  %66 = load i64, ptr %65, align 8, !tbaa !51
  %67 = call ptr @memchr(ptr noundef %63, i32 noundef 0, i64 noundef %66) #12
  %68 = icmp ne ptr %67, null
  br i1 %68, label %69, label %71

69:                                               ; preds = %60
  %70 = call ptr @_(ptr noundef @.str.39)
  call void (ptr, ...) @die(ptr noundef %70) #13
  unreachable

71:                                               ; preds = %60, %21
  %72 = load ptr, ptr %3, align 8, !tbaa !44
  %73 = getelementptr inbounds nuw %struct.grep_pat, ptr %72, i32 0, i32 4
  %74 = load ptr, ptr %73, align 8, !tbaa !46
  %75 = load ptr, ptr %3, align 8, !tbaa !44
  %76 = getelementptr inbounds nuw %struct.grep_pat, ptr %75, i32 0, i32 5
  %77 = load i64, ptr %76, align 8, !tbaa !51
  %78 = call i32 @is_fixed(ptr noundef %74, i64 noundef %77)
  %79 = load ptr, ptr %3, align 8, !tbaa !44
  %80 = getelementptr inbounds nuw %struct.grep_pat, ptr %79, i32 0, i32 14
  %81 = trunc i32 %78 to i8
  %82 = load i8, ptr %80, align 4
  %83 = and i8 %81, 1
  %84 = shl i8 %83, 1
  %85 = and i8 %82, -3
  %86 = or i8 %85, %84
  store i8 %86, ptr %80, align 4
  %87 = load ptr, ptr %3, align 8, !tbaa !44
  %88 = getelementptr inbounds nuw %struct.grep_pat, ptr %87, i32 0, i32 14
  %89 = load i8, ptr %88, align 4
  %90 = and i8 %89, 1
  %91 = zext i8 %90 to i32
  %92 = icmp ne i32 %91, 0
  br i1 %92, label %101, label %93

93:                                               ; preds = %71
  %94 = load ptr, ptr %3, align 8, !tbaa !44
  %95 = getelementptr inbounds nuw %struct.grep_pat, ptr %94, i32 0, i32 14
  %96 = load i8, ptr %95, align 4
  %97 = lshr i8 %96, 1
  %98 = and i8 %97, 1
  %99 = zext i8 %98 to i32
  %100 = icmp ne i32 %99, 0
  br i1 %100, label %101, label %104

101:                                              ; preds = %93, %71
  %102 = load ptr, ptr %3, align 8, !tbaa !44
  %103 = load ptr, ptr %4, align 8, !tbaa !19
  call void @compile_fixed_regexp(ptr noundef %102, ptr noundef %103)
  store i32 1, ptr %7, align 4
  br label %150

104:                                              ; preds = %93
  %105 = load ptr, ptr %4, align 8, !tbaa !19
  %106 = getelementptr inbounds nuw %struct.grep_opt, ptr %105, i32 0, i32 30
  %107 = load i32, ptr %106, align 8, !tbaa !28
  %108 = icmp eq i32 %107, 4
  br i1 %108, label %109, label %112

109:                                              ; preds = %104
  %110 = load ptr, ptr %3, align 8, !tbaa !44
  %111 = load ptr, ptr %4, align 8, !tbaa !19
  call void @compile_pcre2_pattern(ptr noundef %110, ptr noundef %111)
  store i32 1, ptr %7, align 4
  br label %150

112:                                              ; preds = %104
  %113 = load ptr, ptr %3, align 8, !tbaa !44
  %114 = getelementptr inbounds nuw %struct.grep_pat, ptr %113, i32 0, i32 14
  %115 = load i8, ptr %114, align 4
  %116 = lshr i8 %115, 2
  %117 = and i8 %116, 1
  %118 = zext i8 %117 to i32
  %119 = icmp ne i32 %118, 0
  br i1 %119, label %120, label %123

120:                                              ; preds = %112
  %121 = load i32, ptr %6, align 4, !tbaa !33
  %122 = or i32 %121, 2
  store i32 %122, ptr %6, align 4, !tbaa !33
  br label %123

123:                                              ; preds = %120, %112
  %124 = load ptr, ptr %4, align 8, !tbaa !19
  %125 = getelementptr inbounds nuw %struct.grep_opt, ptr %124, i32 0, i32 30
  %126 = load i32, ptr %125, align 8, !tbaa !28
  %127 = icmp eq i32 %126, 2
  br i1 %127, label %128, label %131

128:                                              ; preds = %123
  %129 = load i32, ptr %6, align 4, !tbaa !33
  %130 = or i32 %129, 1
  store i32 %130, ptr %6, align 4, !tbaa !33
  br label %131

131:                                              ; preds = %128, %123
  %132 = load ptr, ptr %3, align 8, !tbaa !44
  %133 = getelementptr inbounds nuw %struct.grep_pat, ptr %132, i32 0, i32 7
  %134 = load ptr, ptr %3, align 8, !tbaa !44
  %135 = getelementptr inbounds nuw %struct.grep_pat, ptr %134, i32 0, i32 4
  %136 = load ptr, ptr %135, align 8, !tbaa !46
  %137 = load i32, ptr %6, align 4, !tbaa !33
  %138 = call i32 @regcomp(ptr noundef %133, ptr noundef %136, i32 noundef %137)
  store i32 %138, ptr %5, align 4, !tbaa !33
  %139 = load i32, ptr %5, align 4, !tbaa !33
  %140 = icmp ne i32 %139, 0
  br i1 %140, label %141, label %149

141:                                              ; preds = %131
  call void @llvm.lifetime.start.p0(i64 1024, ptr %8) #11
  %142 = load i32, ptr %5, align 4, !tbaa !33
  %143 = load ptr, ptr %3, align 8, !tbaa !44
  %144 = getelementptr inbounds nuw %struct.grep_pat, ptr %143, i32 0, i32 7
  %145 = getelementptr inbounds [1024 x i8], ptr %8, i64 0, i64 0
  %146 = call i64 @regerror(i32 noundef %142, ptr noundef %144, ptr noundef %145, i64 noundef 1024)
  %147 = load ptr, ptr %3, align 8, !tbaa !44
  %148 = getelementptr inbounds [1024 x i8], ptr %8, i64 0, i64 0
  call void @compile_regexp_failed(ptr noundef %147, ptr noundef %148) #13
  unreachable

149:                                              ; preds = %131
  store i32 0, ptr %7, align 4
  br label %150

150:                                              ; preds = %149, %109, %101
  call void @llvm.lifetime.end.p0(i64 4, ptr %6) #11
  call void @llvm.lifetime.end.p0(i64 4, ptr %5) #11
  %151 = load i32, ptr %7, align 4
  switch i32 %151, label %153 [
    i32 0, label %152
    i32 1, label %152
  ]

152:                                              ; preds = %150, %150
  ret void

153:                                              ; preds = %150
  unreachable
}