; Function Attrs: nounwind uwtable
define internal fastcc void @compile_regexp(ptr noundef %0, ptr noundef captures(none) %1) unnamed_addr #0 {
  %3 = alloca %struct.strbuf, align 8
  %4 = alloca [1024 x i8], align 16
  %5 = alloca [1024 x i8], align 16
  %6 = getelementptr inbounds nuw i8, ptr %1, i64 144
  %7 = load i32, ptr %6, align 8, !tbaa !18
  %8 = icmp eq i32 %7, 0
  br i1 %8, label %9, label %13

9:                                                ; preds = %2
  %10 = getelementptr inbounds nuw i8, ptr %1, i64 140
  %11 = load i32, ptr %10, align 4, !tbaa !11
  %.not = icmp eq i32 %11, 0
  %12 = select i1 %.not, i32 1, i32 2
  store i32 %12, ptr %6, align 8, !tbaa !18
  br label %13

13:                                               ; preds = %9, %2
  %14 = getelementptr inbounds nuw i8, ptr %1, i64 80
  %15 = load i32, ptr %14, align 8, !tbaa !63
  %16 = getelementptr inbounds nuw i8, ptr %0, i64 156
  %17 = trunc i32 %15 to i8
  %18 = load i8, ptr %16, align 4
  %19 = shl i8 %17, 3
  %20 = and i8 %19, 8
  %21 = and i8 %18, -9
  %22 = or disjoint i8 %20, %21
  store i8 %22, ptr %16, align 4
  %23 = getelementptr inbounds nuw i8, ptr %1, i64 60
  %24 = load i32, ptr %23, align 4, !tbaa !64
  %25 = trunc i32 %24 to i8
  %26 = shl i8 %25, 2
  %27 = and i8 %26, 4
  %28 = and i8 %22, -5
  %29 = or disjoint i8 %27, %28
  store i8 %29, ptr %16, align 4
  %30 = load i32, ptr %6, align 8, !tbaa !18
  %31 = icmp eq i32 %30, 3
  %32 = zext i1 %31 to i8
  %33 = and i8 %29, -2
  %34 = or disjoint i8 %33, %32
  store i8 %34, ptr %16, align 4
  %35 = load i32, ptr %6, align 8, !tbaa !18
  %.not33 = icmp eq i32 %35, 4
  %.phi.trans.insert = getelementptr inbounds nuw i8, ptr %0, i64 24
  %.pre = load ptr, ptr %.phi.trans.insert, align 8, !tbaa !30
  %.phi.trans.insert41 = getelementptr inbounds nuw i8, ptr %0, i64 32
  %.pre42 = load i64, ptr %.phi.trans.insert41, align 8, !tbaa !36
  br i1 %.not33, label %._crit_edge, label %36

36:                                               ; preds = %13
  %37 = tail call ptr @memchr(ptr noundef %.pre, i32 noundef 0, i64 noundef %.pre42) #19
  %.not34 = icmp eq ptr %37, null
  br i1 %.not34, label %._crit_edge, label %38

38:                                               ; preds = %36
  %39 = tail call fastcc ptr @_(ptr noundef nonnull @.str.39)
  tail call void (ptr, ...) @die(ptr noundef %39) #20
  unreachable

._crit_edge:                                      ; preds = %13, %36
  %.not9.i = icmp eq i64 %.pre42, 0
  br i1 %.not9.i, label %is_fixed.exit.thread, label %.lr.ph.i

40:                                               ; preds = %.lr.ph.i
  %41 = add nuw i64 %.06.i, 1
  %exitcond.not.i = icmp eq i64 %41, %.pre42
  br i1 %exitcond.not.i, label %is_fixed.exit.thread, label %.lr.ph.i, !llvm.loop !65

.lr.ph.i:                                         ; preds = %._crit_edge, %40
  %.06.i = phi i64 [ %41, %40 ], [ 0, %._crit_edge ]
  %42 = getelementptr inbounds nuw i8, ptr %.pre, i64 %.06.i
  %43 = load i8, ptr %42, align 1, !tbaa !23
  %44 = zext i8 %43 to i64
  %45 = getelementptr inbounds nuw [256 x i8], ptr @sane_ctype, i64 0, i64 %44
  %46 = load i8, ptr %45, align 1, !tbaa !23
  %47 = and i8 %46, 24
  %.not.i = icmp eq i8 %47, 0
  br i1 %.not.i, label %40, label %is_fixed.exit

is_fixed.exit.thread:                             ; preds = %40, %._crit_edge
  %48 = or i8 %34, 2
  store i8 %48, ptr %16, align 4
  br label %50

is_fixed.exit:                                    ; preds = %.lr.ph.i
  %49 = and i8 %34, -3
  store i8 %49, ptr %16, align 4
  br i1 %31, label %50, label %58

50:                                               ; preds = %is_fixed.exit.thread, %is_fixed.exit
  call void @llvm.lifetime.start.p0(i64 24, ptr nonnull %3) #18
  call void @llvm.memcpy.p0.p0.i64(ptr noundef nonnull align 8 dereferenceable(24) %3, ptr noundef nonnull align 8 dereferenceable(24) @__const.compile_fixed_regexp.sb, i64 24, i1 false)
  call void @basic_regex_quote_buf(ptr noundef nonnull %3, ptr noundef %.pre) #18
  %51 = load i32, ptr %23, align 4, !tbaa !64
  %.not.i39 = icmp eq i32 %51, 0
  %spec.select.i = select i1 %.not.i39, i32 0, i32 2
  %52 = getelementptr inbounds nuw i8, ptr %0, i64 48
  %53 = getelementptr inbounds nuw i8, ptr %3, i64 16
  %54 = load ptr, ptr %53, align 8, !tbaa !66
  %55 = call i32 @regcomp(ptr noundef nonnull %52, ptr noundef %54, i32 noundef %spec.select.i) #18
  call void @strbuf_release(ptr noundef nonnull %3) #18
  %.not9.i40 = icmp eq i32 %55, 0
  br i1 %.not9.i40, label %compile_fixed_regexp.exit, label %56

56:                                               ; preds = %50
  call void @llvm.lifetime.start.p0(i64 1024, ptr nonnull %4) #18
  %57 = call i64 @regerror(i32 noundef %55, ptr noundef nonnull %52, ptr noundef nonnull %4, i64 noundef 1024) #18
  call fastcc void @compile_regexp_failed(ptr noundef nonnull %0, ptr noundef %4) #21
  unreachable

compile_fixed_regexp.exit:                        ; preds = %50
  call void @llvm.lifetime.end.p0(i64 24, ptr nonnull %3) #18
  br label %69

58:                                               ; preds = %is_fixed.exit
  %59 = load i32, ptr %6, align 8, !tbaa !18
  %60 = icmp eq i32 %59, 4
  br i1 %60, label %61, label %62

61:                                               ; preds = %58
  tail call void (ptr, ...) @die(ptr noundef nonnull @.str.41) #20
  unreachable

62:                                               ; preds = %58
  %.not37 = icmp eq i8 %27, 0
  %spec.select = select i1 %.not37, i32 4, i32 6
  %63 = icmp eq i32 %59, 2
  %64 = zext i1 %63 to i32
  %.1 = or disjoint i32 %spec.select, %64
  %65 = getelementptr inbounds nuw i8, ptr %0, i64 48
  %66 = tail call i32 @regcomp(ptr noundef nonnull %65, ptr noundef nonnull %.pre, i32 noundef %.1) #18
  %.not38 = icmp eq i32 %66, 0
  br i1 %.not38, label %69, label %67

67:                                               ; preds = %62
  call void @llvm.lifetime.start.p0(i64 1024, ptr nonnull %5) #18
  %68 = call i64 @regerror(i32 noundef %66, ptr noundef nonnull %65, ptr noundef nonnull %5, i64 noundef 1024) #18
  call fastcc void @compile_regexp_failed(ptr noundef nonnull %0, ptr noundef %5) #21
  unreachable

69:                                               ; preds = %62, %compile_fixed_regexp.exit
  ret void
}